; Function Attrs: nounwind uwtable
define i32 @nghttp2_submit_shutdown_notice(ptr noundef %0) local_unnamed_addr #0 {
  %2 = getelementptr inbounds nuw i8, ptr %0, i64 2675
  %3 = load i8, ptr %2, align 1, !tbaa !39
  %.not = icmp eq i8 %3, 0
  br i1 %.not, label %9, label %4

4:                                                ; preds = %1
  %5 = getelementptr inbounds nuw i8, ptr %0, i64 2676
  %6 = load i8, ptr %5, align 4, !tbaa !40
  %.not3 = icmp eq i8 %6, 0
  br i1 %.not3, label %7, label %9

7:                                                ; preds = %4
  %8 = tail call i32 @nghttp2_session_add_goaway(ptr noundef nonnull %0, i32 noundef 2147483647, i32 noundef 0, ptr noundef null, i64 noundef 0, i8 noundef zeroext 2) #8
  br label %9

9:                                                ; preds = %4, %1, %7
  %.0 = phi i32 [ %8, %7 ], [ -519, %1 ], [ 0, %4 ]
  ret i32 %.0
}